target datalayout = "e-m:e-p270:32:32-p271:32:32-p272:64:64-i64:64-i128:128-f80:128-n8:16:32:64-S128"
target triple = "x86_64-pc-linux-gnu"

%"class.llvm::SDValue" = type <{ ptr, i32, [4 x i8] }>
%"class.llvm::DAGTypeLegalizer" = type { ptr, ptr, %"class.llvm::TargetLoweringBase::ValueTypeActionImpl", i32, %"class.llvm::SmallDenseMap", %"class.llvm::SmallDenseMap.0", %"class.llvm::SmallDenseMap.3", %"class.llvm::SmallDenseMap.6", %"class.llvm::SmallDenseMap.3", %"class.llvm::SmallDenseMap.3", %"class.llvm::SmallDenseMap.3", %"class.llvm::SmallDenseMap.6", %"class.llvm::SmallDenseMap.3", %"class.llvm::SmallDenseMap.6", %"class.llvm::SmallDenseMap.3", %"class.llvm::SmallDenseMap.3", %"class.llvm::SmallVector" }
%"class.llvm::TargetLoweringBase::ValueTypeActionImpl" = type { [233 x i8] }
%"class.llvm::SmallDenseMap" = type { i32, i32, %"struct.llvm::AlignedCharArrayUnion" }
%"struct.llvm::AlignedCharArrayUnion" = type { [192 x i8] }
%"class.llvm::SmallDenseMap.0" = type { i32, i32, %"struct.llvm::AlignedCharArrayUnion.2" }
%"struct.llvm::AlignedCharArrayUnion.2" = type { [192 x i8] }
%"class.llvm::SmallDenseMap.6" = type { i32, i32, %"struct.llvm::AlignedCharArrayUnion.8" }
%"struct.llvm::AlignedCharArrayUnion.8" = type { [96 x i8] }
%"class.llvm::SmallDenseMap.3" = type { i32, i32, %"struct.llvm::AlignedCharArrayUnion.5" }
%"struct.llvm::AlignedCharArrayUnion.5" = type { [64 x i8] }
%"class.llvm::SmallVector" = type { %"class.llvm::SmallVectorImpl", %"struct.llvm::SmallVectorStorage" }
%"class.llvm::SmallVectorImpl" = type { %"class.llvm::SmallVectorTemplateBase" }
%"class.llvm::SmallVectorTemplateBase" = type { %"class.llvm::SmallVectorTemplateCommon" }
%"class.llvm::SmallVectorTemplateCommon" = type { %"class.llvm::SmallVectorBase" }
%"class.llvm::SmallVectorBase" = type { ptr, i32, i32 }
%"struct.llvm::SmallVectorStorage" = type { [1024 x i8] }

; Function Attrs: mustprogress nounwind uwtable
define linkonce_odr hidden void @_ZN4llvm7SDValueC2Ev(ptr noundef nonnull align 8 dereferenceable(12) %0) unnamed_addr #0 comdat align 2 {
  %2 = alloca ptr, align 8
  store ptr %0, ptr %2, align 8
  %3 = load ptr, ptr %2, align 8
  %4 = getelementptr inbounds nuw %"class.llvm::SDValue", ptr %3, i32 0, i32 0
  store ptr null, ptr %4, align 8
  %5 = getelementptr inbounds nuw %"class.llvm::SDValue", ptr %3, i32 0, i32 1
  store i32 0, ptr %5, align 8
  ret void
}

; Function Attrs: mustprogress nounwind uwtable
define linkonce_odr hidden void @_ZN4llvm7SDValueC2EPNS_6SDNodeEj(ptr noundef nonnull align 8 dereferenceable(12) %0, ptr noundef %1, i32 noundef %2) unnamed_addr #0 comdat align 2 {
  %4 = alloca ptr, align 8
  %5 = alloca ptr, align 8
  %6 = alloca i32, align 4
  store ptr %0, ptr %4, align 8
  store ptr %1, ptr %5, align 8
  store i32 %2, ptr %6, align 4
  %7 = load ptr, ptr %4, align 8
  %8 = getelementptr inbounds nuw %"class.llvm::SDValue", ptr %7, i32 0, i32 0
  %9 = load ptr, ptr %5, align 8
  store ptr %9, ptr %8, align 8
  %10 = getelementptr inbounds nuw %"class.llvm::SDValue", ptr %7, i32 0, i32 1
  %11 = load i32, ptr %6, align 4
  store i32 %11, ptr %10, align 8
  ret void
}

; Function Attrs: mustprogress nounwind uwtable
define hidden { ptr, i32 } @_ZN4llvm16DAGTypeLegalizer28SoftPromoteHalfRes_VECREDUCEEPNS_6SDNodeE(ptr noundef nonnull align 8 dereferenceable(2512) %0, ptr noundef %1) #0 align 2 {
  %3 = alloca %"class.llvm::SDValue", align 8
  %4 = alloca ptr, align 8
  %5 = alloca ptr, align 8
  %6 = alloca %"class.llvm::SDValue", align 8
  %7 = alloca %"class.llvm::SDValue", align 8
  %8 = alloca { ptr, i32 }, align 8
  store ptr %0, ptr %4, align 8
  store ptr %1, ptr %5, align 8
  %9 = load ptr, ptr %4, align 8
  %10 = load ptr, ptr %5, align 8
  call void @_ZN4llvm7SDValueC2EPNS_6SDNodeEj(ptr noundef nonnull align 8 dereferenceable(12) %6, ptr noundef %10, i32 noundef 0)
  %11 = getelementptr inbounds nuw %"class.llvm::DAGTypeLegalizer", ptr %9, i32 0, i32 0
  %12 = load ptr, ptr %11, align 8
  %13 = load ptr, ptr %5, align 8
  %14 = getelementptr inbounds nuw %"class.llvm::DAGTypeLegalizer", ptr %9, i32 0, i32 1
  %15 = load ptr, ptr %14, align 8
  %16 = call { ptr, i32 } @_ZNK4llvm14TargetLowering15expandVecReduceEPNS_6SDNodeERNS_12SelectionDAGE(ptr noundef nonnull align 8 dereferenceable(408123) %12, ptr noundef %13, ptr noundef nonnull align 8 dereferenceable(904) %15)
  store { ptr, i32 } %16, ptr %8, align 8
  call void @llvm.memcpy.p0.p0.i64(ptr align 8 %7, ptr align 8 %8, i64 12, i1 false)
  %17 = getelementptr inbounds nuw { ptr, i32 }, ptr %6, i32 0, i32 0
  %18 = load ptr, ptr %17, align 8
  %19 = getelementptr inbounds nuw { ptr, i32 }, ptr %6, i32 0, i32 1
  %20 = load i32, ptr %19, align 8
  %21 = getelementptr inbounds nuw { ptr, i32 }, ptr %7, i32 0, i32 0
  %22 = load ptr, ptr %21, align 8
  %23 = getelementptr inbounds nuw { ptr, i32 }, ptr %7, i32 0, i32 1
  %24 = load i32, ptr %23, align 8
  call void @_ZN4llvm16DAGTypeLegalizer16ReplaceValueWithENS_7SDValueES1_(ptr noundef nonnull align 8 dereferenceable(2512) %9, ptr %18, i32 %20, ptr %22, i32 %24)
  call void @llvm.memset.p0.i64(ptr align 8 %3, i8 0, i64 16, i1 false)
  call void @_ZN4llvm7SDValueC2Ev(ptr noundef nonnull align 8 dereferenceable(12) %3) #10
  %25 = load { ptr, i32 }, ptr %3, align 8
  ret { ptr, i32 } %25
}