; Function Attrs: mustprogress nounwind uwtable
define hidden { ptr, i32 } @_ZN4llvm16DAGTypeLegalizer28SoftPromoteHalfRes_VECREDUCEEPNS_6SDNodeE(ptr noundef nonnull align 8 dereferenceable(2512) %0, ptr noundef %1) local_unnamed_addr #0 align 2 {
  %3 = load ptr, ptr %0, align 8
  %4 = getelementptr inbounds nuw i8, ptr %0, i64 8
  %5 = load ptr, ptr %4, align 8
  %6 = tail call { ptr, i32 } @_ZNK4llvm14TargetLowering15expandVecReduceEPNS_6SDNodeERNS_12SelectionDAGE(ptr noundef nonnull align 8 dereferenceable(408123) %3, ptr noundef %1, ptr noundef nonnull align 8 dereferenceable(904) %5) #15
  %.fca.0.extract = extractvalue { ptr, i32 } %6, 0
  %.fca.1.extract = extractvalue { ptr, i32 } %6, 1
  tail call void @_ZN4llvm16DAGTypeLegalizer16ReplaceValueWithENS_7SDValueES1_(ptr noundef nonnull align 8 dereferenceable(2512) %0, ptr %1, i32 0, ptr %.fca.0.extract, i32 %.fca.1.extract) #15
  ret { ptr, i32 } zeroinitializer
}